; Function Attrs: mustprogress uwtable
define i32 @u_sprintf_u_77(ptr noundef %0, ptr noundef %1, ...) local_unnamed_addr #0 {
  %3 = alloca i32, align 4
  %4 = alloca %struct.u_localized_print_string, align 8
  %5 = alloca [1 x %struct.__va_list_tag], align 16
  call void @llvm.lifetime.start.p0(i64 24, ptr nonnull %5) #7
  call void @llvm.va_start.p0(ptr nonnull %5)
  call void @llvm.lifetime.start.p0(i64 4, ptr nonnull %3) #7
  store i32 0, ptr %3, align 4, !tbaa !3
  call void @llvm.lifetime.start.p0(i64 72, ptr nonnull %4) #7
  store ptr %0, ptr %4, align 8, !tbaa !7
  %6 = getelementptr inbounds nuw i8, ptr %4, i64 12
  store i32 2147483647, ptr %6, align 4, !tbaa !13
  %7 = getelementptr inbounds nuw i8, ptr %4, i64 8
  store i32 2147483647, ptr %7, align 8, !tbaa !14
  %8 = getelementptr inbounds nuw i8, ptr %4, i64 16
  %9 = call ptr @u_locbund_init_77(ptr noundef nonnull %8, ptr noundef nonnull @.str)
  %10 = icmp eq ptr %9, null
  br i1 %10, label %u_vsnprintf_u_77.exit, label %11

11:                                               ; preds = %2
  %12 = call i32 @u_printf_parse_77(ptr noundef nonnull @_ZL24g_sprintf_stream_handler, ptr noundef %1, ptr noundef nonnull %4, ptr noundef nonnull %4, ptr noundef nonnull %8, ptr noundef nonnull %3, ptr noundef nonnull %5)
  %13 = load i32, ptr %7, align 8, !tbaa !14
  %14 = icmp sgt i32 %13, 0
  br i1 %14, label %15, label %20

15:                                               ; preds = %11
  %16 = load i32, ptr %6, align 4, !tbaa !13
  %17 = sub nsw i32 %16, %13
  %18 = sext i32 %17 to i64
  %19 = getelementptr inbounds i16, ptr %0, i64 %18
  store i16 0, ptr %19, align 2, !tbaa !15
  br label %20

20:                                               ; preds = %15, %11
  call void @u_locbund_close_77(ptr noundef nonnull %8)
  %21 = icmp slt i32 %12, 0
  %22 = load i32, ptr %3, align 4
  %spec.select.i = select i1 %21, i32 %12, i32 %22
  br label %u_vsnprintf_u_77.exit

u_vsnprintf_u_77.exit:                            ; preds = %2, %20
  %.0.i = phi i32 [ 0, %2 ], [ %spec.select.i, %20 ]
  call void @llvm.lifetime.end.p0(i64 72, ptr nonnull %4) #7
  call void @llvm.lifetime.end.p0(i64 4, ptr nonnull %3) #7
  call void @llvm.va_end.p0(ptr nonnull %5)
  call void @llvm.lifetime.end.p0(i64 24, ptr nonnull %5) #7
  ret i32 %.0.i
}